; Function Attrs: mustprogress uwtable
define void @_ZN5arrow2io16MemoryMappedFileC2Ev(ptr noundef nonnull align 8 dereferenceable(56) %this, ptr noundef %vtt) unnamed_addr #0 align 2 personality ptr @__gxx_personality_v0 {
entry:
  %0 = getelementptr inbounds i8, ptr %vtt, i64 8
  %1 = getelementptr inbounds i8, ptr %vtt, i64 16
  tail call void @_ZN5arrow2io16RandomAccessFileC2Ev(ptr noundef nonnull align 8 dereferenceable(24) %this, ptr noundef nonnull %1)
  %2 = getelementptr inbounds i8, ptr %this, i64 24
  %3 = getelementptr inbounds i8, ptr %vtt, i64 64
  %4 = getelementptr inbounds i8, ptr %vtt, i64 72
  store ptr getelementptr inbounds ({ [7 x ptr] }, ptr @_ZTVN5arrow2io8WritableE, i64 0, i32 0, i64 2), ptr %2, align 8
  %5 = load ptr, ptr %4, align 8
  store ptr %5, ptr %2, align 8
  %6 = getelementptr inbounds i8, ptr %vtt, i64 80
  %7 = load ptr, ptr %6, align 8
  %vbase.offset.ptr.i.i.i = getelementptr i8, ptr %5, i64 -24
  %vbase.offset.i.i.i = load i64, ptr %vbase.offset.ptr.i.i.i, align 8
  %add.ptr.i.i.i = getelementptr inbounds i8, ptr %2, i64 %vbase.offset.i.i.i
  store ptr %7, ptr %add.ptr.i.i.i, align 8
  %8 = getelementptr inbounds i8, ptr %this, i64 32
  store ptr getelementptr inbounds ({ [5 x ptr] }, ptr @_ZTVN5arrow2io8SeekableE, i64 0, i32 0, i64 2), ptr %8, align 8
  %9 = load ptr, ptr %3, align 8
  store ptr %9, ptr %2, align 8
  %10 = getelementptr inbounds i8, ptr %vtt, i64 88
  %11 = load ptr, ptr %10, align 8
  %vbase.offset.ptr.i.i = getelementptr i8, ptr %9, i64 -24
  %vbase.offset.i.i = load i64, ptr %vbase.offset.ptr.i.i, align 8
  %add.ptr.i.i = getelementptr inbounds i8, ptr %2, i64 %vbase.offset.i.i
  store ptr %11, ptr %add.ptr.i.i, align 8
  store ptr getelementptr inbounds ({ [9 x ptr], [5 x ptr], [15 x ptr] }, ptr @_ZTVN5arrow2io12WritableFileE, i64 0, i32 1, i64 2), ptr %8, align 8
  %12 = load ptr, ptr %0, align 8
  store ptr %12, ptr %this, align 8
  %13 = getelementptr inbounds i8, ptr %vtt, i64 96
  %14 = load ptr, ptr %13, align 8
  %vbase.offset.ptr.i = getelementptr i8, ptr %12, i64 -56
  %vbase.offset.i = load i64, ptr %vbase.offset.ptr.i, align 8
  %add.ptr.i = getelementptr inbounds i8, ptr %this, i64 %vbase.offset.i
  store ptr %14, ptr %add.ptr.i, align 8
  %15 = getelementptr inbounds i8, ptr %vtt, i64 104
  %16 = load ptr, ptr %15, align 8
  %vtable3.i = load ptr, ptr %this, align 8
  %vbase.offset.ptr4.i = getelementptr i8, ptr %vtable3.i, i64 -64
  %vbase.offset5.i = load i64, ptr %vbase.offset.ptr4.i, align 8
  %add.ptr6.i = getelementptr inbounds i8, ptr %this, i64 %vbase.offset5.i
  store ptr %16, ptr %add.ptr6.i, align 8
  %add.ptr7.i = getelementptr inbounds i8, ptr %this, i64 8
  store ptr getelementptr inbounds ({ [23 x ptr], [5 x ptr], [9 x ptr], [5 x ptr], [15 x ptr] }, ptr @_ZTVN5arrow2io22ReadWriteFileInterfaceE, i64 0, i32 1, i64 2), ptr %add.ptr7.i, align 8
  %17 = getelementptr inbounds i8, ptr %vtt, i64 112
  %18 = load ptr, ptr %17, align 8
  store ptr %18, ptr %2, align 8
  store ptr getelementptr inbounds ({ [23 x ptr], [5 x ptr], [9 x ptr], [5 x ptr], [15 x ptr] }, ptr @_ZTVN5arrow2io22ReadWriteFileInterfaceE, i64 0, i32 3, i64 2), ptr %8, align 8
  %vtable10.i = load ptr, ptr %this, align 8
  %vbase.offset.ptr11.i = getelementptr i8, ptr %vtable10.i, i64 -56
  %vbase.offset12.i = load i64, ptr %vbase.offset.ptr11.i, align 8
  %add.ptr13.i = getelementptr inbounds i8, ptr %this, i64 %vbase.offset12.i
  %mode_.i.i = getelementptr inbounds i8, ptr %add.ptr13.i, i64 24
  store i32 2, ptr %mode_.i.i, align 8
  %19 = load ptr, ptr %vtt, align 8
  store ptr %19, ptr %this, align 8
  %20 = getelementptr inbounds i8, ptr %vtt, i64 120
  %21 = load ptr, ptr %20, align 8
  %vbase.offset.ptr = getelementptr i8, ptr %19, i64 -56
  %vbase.offset = load i64, ptr %vbase.offset.ptr, align 8
  %add.ptr = getelementptr inbounds i8, ptr %this, i64 %vbase.offset
  store ptr %21, ptr %add.ptr, align 8
  %22 = getelementptr inbounds i8, ptr %vtt, i64 128
  %23 = load ptr, ptr %22, align 8
  %vtable3 = load ptr, ptr %this, align 8
  %vbase.offset.ptr4 = getelementptr i8, ptr %vtable3, i64 -64
  %vbase.offset5 = load i64, ptr %vbase.offset.ptr4, align 8
  %add.ptr6 = getelementptr inbounds i8, ptr %this, i64 %vbase.offset5
  store ptr %23, ptr %add.ptr6, align 8
  store ptr getelementptr inbounds ({ [29 x ptr], [5 x ptr], [9 x ptr], [5 x ptr], [15 x ptr] }, ptr @_ZTVN5arrow2io16MemoryMappedFileE, i64 0, i32 1, i64 2), ptr %add.ptr7.i, align 8
  %24 = getelementptr inbounds i8, ptr %vtt, i64 136
  %25 = load ptr, ptr %24, align 8
  store ptr %25, ptr %2, align 8
  store ptr getelementptr inbounds ({ [29 x ptr], [5 x ptr], [9 x ptr], [5 x ptr], [15 x ptr] }, ptr @_ZTVN5arrow2io16MemoryMappedFileE, i64 0, i32 3, i64 2), ptr %8, align 8
  %memory_map_ = getelementptr inbounds i8, ptr %this, i64 40
  tail call void @llvm.memset.p0.i64(ptr noundef nonnull align 8 dereferenceable(16) %memory_map_, i8 0, i64 16, i1 false)
  ret void
}